; Listing generated by Microsoft (R) Optimizing Compiler Version 19.16.27034.0 

	TITLE	c:\dev\thechernoproject\33_string_literals\33_string_literals\string_literals.cpp
	.686P
	.XMM
	include listing.inc
	.model	flat

INCLUDELIB OLDNAMES

PUBLIC	??_C@_06MDBPMDDK@Cherno@			; `string'
PUBLIC	??_C@_07LMLFIAKG@Che?$AArno@			; `string'
PUBLIC	??_C@_03BDDENBIM@Ira@				; `string'
EXTRN	__imp_?rdstate@ios_base@std@@QBEHXZ:PROC
EXTRN	__imp_?good@ios_base@std@@QBE_NXZ:PROC
EXTRN	__imp_?flags@ios_base@std@@QBEHXZ:PROC
EXTRN	__imp_?width@ios_base@std@@QBE_JXZ:PROC
EXTRN	__imp_?width@ios_base@std@@QAE_J_J@Z:PROC
EXTRN	__imp_??6?$basic_ostream@DU?$char_traits@D@std@@@std@@QAEAAV01@I@Z:PROC
EXTRN	__imp_??6?$basic_ostream@DU?$char_traits@D@std@@@std@@QAEAAV01@P6AAAV01@AAV01@@Z@Z:PROC
EXTRN	__imp_?get@?$basic_istream@DU?$char_traits@D@std@@@std@@QAEHXZ:PROC
EXTRN	__imp_?fill@?$basic_ios@DU?$char_traits@D@std@@@std@@QBEDXZ:PROC
EXTRN	__imp_?rdbuf@?$basic_ios@DU?$char_traits@D@std@@@std@@QBEPAV?$basic_streambuf@DU?$char_traits@D@std@@@2@XZ:PROC
EXTRN	__imp_?setstate@?$basic_ios@DU?$char_traits@D@std@@@std@@QAEXH_N@Z:PROC
EXTRN	__imp_?flush@?$basic_ostream@DU?$char_traits@D@std@@@std@@QAEAAV12@XZ:PROC
EXTRN	__imp_?_Osfx@?$basic_ostream@DU?$char_traits@D@std@@@std@@QAEXXZ:PROC
EXTRN	__imp_?tie@?$basic_ios@DU?$char_traits@D@std@@@std@@QBEPAV?$basic_ostream@DU?$char_traits@D@std@@@2@XZ:PROC
EXTRN	__imp_?sputc@?$basic_streambuf@DU?$char_traits@D@std@@@std@@QAEHD@Z:PROC
EXTRN	__imp_?put@?$basic_ostream@DU?$char_traits@D@std@@@std@@QAEAAV12@D@Z:PROC
EXTRN	__imp_?sputn@?$basic_streambuf@DU?$char_traits@D@std@@@std@@QAE_JPBD_J@Z:PROC
EXTRN	__imp_?widen@?$basic_ios@DU?$char_traits@D@std@@@std@@QBEDD@Z:PROC
EXTRN	__imp____std_terminate:PROC
EXTRN	__imp_?cin@std@@3V?$basic_istream@DU?$char_traits@D@std@@@1@A:BYTE
EXTRN	__imp_?uncaught_exception@std@@YA_NXZ:PROC
EXTRN	__imp_?cout@std@@3V?$basic_ostream@DU?$char_traits@D@std@@@1@A:BYTE
EXTRN	@__security_check_cookie@4:PROC
EXTRN	__imp____CxxFrameHandler3:PROC
;	COMDAT ??_C@_03BDDENBIM@Ira@
CONST	SEGMENT
??_C@_03BDDENBIM@Ira@ DB 'Ira', 00H			; `string'
CONST	ENDS
;	COMDAT ??_C@_07LMLFIAKG@Che?$AArno@
CONST	SEGMENT
??_C@_07LMLFIAKG@Che?$AArno@ DB 'Che', 00H, 'rno', 00H	; `string'
CONST	ENDS
;	COMDAT ??_C@_06MDBPMDDK@Cherno@
CONST	SEGMENT
??_C@_06MDBPMDDK@Cherno@ DB 'Cherno', 00H		; `string'
CONST	ENDS
PUBLIC	??$endl@DU?$char_traits@D@std@@@std@@YAAAV?$basic_ostream@DU?$char_traits@D@std@@@0@AAV10@@Z ; std::endl<char,std::char_traits<char> >
PUBLIC	??$?6U?$char_traits@D@std@@@std@@YAAAV?$basic_ostream@DU?$char_traits@D@std@@@0@AAV10@PBD@Z ; std::operator<<<std::char_traits<char> >
PUBLIC	??0_Sentry_base@?$basic_ostream@DU?$char_traits@D@std@@@std@@QAE@AAV12@@Z ; std::basic_ostream<char,std::char_traits<char> >::_Sentry_base::_Sentry_base
PUBLIC	??1_Sentry_base@?$basic_ostream@DU?$char_traits@D@std@@@std@@QAE@XZ ; std::basic_ostream<char,std::char_traits<char> >::_Sentry_base::~_Sentry_base
PUBLIC	??0sentry@?$basic_ostream@DU?$char_traits@D@std@@@std@@QAE@AAV12@@Z ; std::basic_ostream<char,std::char_traits<char> >::sentry::sentry
PUBLIC	??1sentry@?$basic_ostream@DU?$char_traits@D@std@@@std@@QAE@XZ ; std::basic_ostream<char,std::char_traits<char> >::sentry::~sentry
PUBLIC	??Bsentry@?$basic_ostream@DU?$char_traits@D@std@@@std@@QBE_NXZ ; std::basic_ostream<char,std::char_traits<char> >::sentry::operator bool
PUBLIC	_main
PUBLIC	?eof@?$char_traits@D@std@@SAHXZ			; std::char_traits<char>::eof
PUBLIC	?eq_int_type@?$char_traits@D@std@@SA_NABH0@Z	; std::char_traits<char>::eq_int_type
PUBLIC	?length@?$char_traits@D@std@@SAIQBD@Z		; std::char_traits<char>::length
EXTRN	___CxxFrameHandler3:PROC
EXTRN	___std_terminate:PROC
EXTRN	___security_cookie:DWORD
;	COMDAT xdata$x
xdata$x	SEGMENT
__ehfuncinfo$??1sentry@?$basic_ostream@DU?$char_traits@D@std@@@std@@QAE@XZ DD 019930522H
	DD	01H
	DD	FLAT:__unwindtable$??1sentry@?$basic_ostream@DU?$char_traits@D@std@@@std@@QAE@XZ
	DD	2 DUP(00H)
	DD	2 DUP(00H)
	DD	00H
	DD	05H
__unwindtable$??1sentry@?$basic_ostream@DU?$char_traits@D@std@@@std@@QAE@XZ DD 0ffffffffH
	DD	FLAT:___std_terminate
xdata$x	ENDS
;	COMDAT xdata$x
xdata$x	SEGMENT
__ehfuncinfo$??0sentry@?$basic_ostream@DU?$char_traits@D@std@@@std@@QAE@AAV12@@Z DD 019930522H
	DD	01H
	DD	FLAT:__unwindtable$??0sentry@?$basic_ostream@DU?$char_traits@D@std@@@std@@QAE@AAV12@@Z
	DD	2 DUP(00H)
	DD	2 DUP(00H)
	DD	00H
	DD	01H
__unwindtable$??0sentry@?$basic_ostream@DU?$char_traits@D@std@@@std@@QAE@AAV12@@Z DD 0ffffffffH
	DD	FLAT:__unwindfunclet$??0sentry@?$basic_ostream@DU?$char_traits@D@std@@@std@@QAE@AAV12@@Z$0
xdata$x	ENDS
;	COMDAT xdata$x
xdata$x	SEGMENT
__ehfuncinfo$??1_Sentry_base@?$basic_ostream@DU?$char_traits@D@std@@@std@@QAE@XZ DD 019930522H
	DD	00H
	DD	00H
	DD	2 DUP(00H)
	DD	2 DUP(00H)
	DD	00H
	DD	05H
xdata$x	ENDS
;	COMDAT xdata$x
xdata$x	SEGMENT
__ehfuncinfo$??$?6U?$char_traits@D@std@@@std@@YAAAV?$basic_ostream@DU?$char_traits@D@std@@@0@AAV10@PBD@Z DD 019930522H
	DD	06H
	DD	FLAT:__unwindtable$??$?6U?$char_traits@D@std@@@std@@YAAAV?$basic_ostream@DU?$char_traits@D@std@@@0@AAV10@PBD@Z
	DD	01H
	DD	FLAT:__tryblocktable$??$?6U?$char_traits@D@std@@@std@@YAAAV?$basic_ostream@DU?$char_traits@D@std@@@0@AAV10@PBD@Z
	DD	2 DUP(00H)
	DD	00H
	DD	01H
__unwindtable$??$?6U?$char_traits@D@std@@@std@@YAAAV?$basic_ostream@DU?$char_traits@D@std@@@0@AAV10@PBD@Z DD 0ffffffffH
	DD	FLAT:__unwindfunclet$??$?6U?$char_traits@D@std@@@std@@YAAAV?$basic_ostream@DU?$char_traits@D@std@@@0@AAV10@PBD@Z$3
	DD	0ffffffffH
	DD	FLAT:__unwindfunclet$??$?6U?$char_traits@D@std@@@std@@YAAAV?$basic_ostream@DU?$char_traits@D@std@@@0@AAV10@PBD@Z$2
	DD	01H
	DD	00H
	DD	01H
	DD	00H
	DD	0ffffffffH
	DD	FLAT:___std_terminate
	DD	04H
	DD	FLAT:___std_terminate
__tryblocktable$??$?6U?$char_traits@D@std@@@std@@YAAAV?$basic_ostream@DU?$char_traits@D@std@@@0@AAV10@PBD@Z DD 02H
	DD	02H
	DD	03H
	DD	01H
	DD	FLAT:__catchsym$??$?6U?$char_traits@D@std@@@std@@YAAAV?$basic_ostream@DU?$char_traits@D@std@@@0@AAV10@PBD@Z$6
__catchsym$??$?6U?$char_traits@D@std@@@std@@YAAAV?$basic_ostream@DU?$char_traits@D@std@@@0@AAV10@PBD@Z$6 DD 040H
	DD	00H
	DD	00H
	DD	FLAT:__catch$??$?6U?$char_traits@D@std@@@std@@YAAAV?$basic_ostream@DU?$char_traits@D@std@@@0@AAV10@PBD@Z$0
xdata$x	ENDS
; Function compile flags: /Ogtp
; File c:\program files (x86)\microsoft visual studio\2017\community\vc\tools\msvc\14.16.27023\include\iosfwd
;	COMDAT ?length@?$char_traits@D@std@@SAIQBD@Z
_TEXT	SEGMENT
?length@?$char_traits@D@std@@SAIQBD@Z PROC		; std::char_traits<char>::length, COMDAT
; __First$ = ecx

; 461  : #if _HAS_CXX17
; 462  : 		return (__builtin_strlen(_First));
; 463  : #else /* _HAS_CXX17 */
; 464  : 		return (_CSTD strlen(_First));

	lea	edx, DWORD PTR [ecx+1]
$LL3@length:
	mov	al, BYTE PTR [ecx]
	inc	ecx
	test	al, al
	jne	SHORT $LL3@length
	sub	ecx, edx
	mov	eax, ecx

; 465  : #endif /* _HAS_CXX17 */
; 466  : 		}

	ret	0
?length@?$char_traits@D@std@@SAIQBD@Z ENDP		; std::char_traits<char>::length
_TEXT	ENDS
; Function compile flags: /Ogtp
; File c:\program files (x86)\microsoft visual studio\2017\community\vc\tools\msvc\14.16.27023\include\iosfwd
;	COMDAT ?eq_int_type@?$char_traits@D@std@@SA_NABH0@Z
_TEXT	SEGMENT
?eq_int_type@?$char_traits@D@std@@SA_NABH0@Z PROC	; std::char_traits<char>::eq_int_type, COMDAT
; __Left$ = ecx
; __Right$ = edx

; 531  : 		return (_Left == _Right);

	mov	eax, DWORD PTR [ecx]
	cmp	eax, DWORD PTR [edx]
	sete	al

; 532  : 		}

	ret	0
?eq_int_type@?$char_traits@D@std@@SA_NABH0@Z ENDP	; std::char_traits<char>::eq_int_type
_TEXT	ENDS
; Function compile flags: /Ogtp
; File c:\program files (x86)\microsoft visual studio\2017\community\vc\tools\msvc\14.16.27023\include\iosfwd
;	COMDAT ?eof@?$char_traits@D@std@@SAHXZ
_TEXT	SEGMENT
?eof@?$char_traits@D@std@@SAHXZ PROC			; std::char_traits<char>::eof, COMDAT

; 541  : 		return (EOF);

	or	eax, -1

; 542  : 		}

	ret	0
?eof@?$char_traits@D@std@@SAHXZ ENDP			; std::char_traits<char>::eof
_TEXT	ENDS
; Function compile flags: /Ogtp
; File c:\dev\thechernoproject\33_string_literals\33_string_literals\string_literals.cpp
;	COMDAT _main
_TEXT	SEGMENT
_name2$ = -12						; size = 8
__$ArrayPad$ = -4					; size = 4
_main	PROC						; COMDAT

; 17   : {

	push	ebp
	mov	ebp, esp
	and	esp, -8					; fffffff8H
	sub	esp, 16					; 00000010H
	mov	eax, DWORD PTR ___security_cookie
	xor	eax, esp
	mov	DWORD PTR __$ArrayPad$[esp+16], eax

; 18   : 	//intellisense indicates const char[7] because of null termination chaacter.
; 19   : 	const char name[8] = "Cherno";
; 20   : 	// null termination character in middle of string breaks behavior of C string.
; 21   : 	const char name2[] = "Che\0rno";

	mov	eax, DWORD PTR ??_C@_07LMLFIAKG@Che?$AArno@

; 22   : 
; 23   : 	std::cout << name2 << std::endl;

	lea	edx, DWORD PTR _name2$[esp+16]
	push	OFFSET ??$endl@DU?$char_traits@D@std@@@std@@YAAAV?$basic_ostream@DU?$char_traits@D@std@@@0@AAV10@@Z ; std::endl<char,std::char_traits<char> >
	mov	DWORD PTR _name2$[esp+20], eax
	mov	eax, DWORD PTR ??_C@_07LMLFIAKG@Che?$AArno@+4
	push	ecx
	mov	ecx, DWORD PTR __imp_?cout@std@@3V?$basic_ostream@DU?$char_traits@D@std@@@1@A
	mov	DWORD PTR _name2$[esp+28], eax
	call	??$?6U?$char_traits@D@std@@@std@@YAAAV?$basic_ostream@DU?$char_traits@D@std@@@0@AAV10@PBD@Z ; std::operator<<<std::char_traits<char> >
	add	esp, 4
	mov	ecx, eax
	call	DWORD PTR __imp_??6?$basic_ostream@DU?$char_traits@D@std@@@std@@QAEAAV01@P6AAAV01@AAV01@@Z@Z

; 24   : 	std::cout << strlen(name2) << std::endl;  // returns 3 because of embedded null termination character.

	lea	eax, DWORD PTR _name2$[esp+16]
	lea	edx, DWORD PTR [eax+1]
	npad	3
$LL3@main:
	mov	cl, BYTE PTR [eax]
	inc	eax
	test	cl, cl
	jne	SHORT $LL3@main
	mov	ecx, DWORD PTR __imp_?cout@std@@3V?$basic_ostream@DU?$char_traits@D@std@@@1@A
	sub	eax, edx
	push	OFFSET ??$endl@DU?$char_traits@D@std@@@std@@YAAAV?$basic_ostream@DU?$char_traits@D@std@@@0@AAV10@@Z ; std::endl<char,std::char_traits<char> >
	push	eax
	call	DWORD PTR __imp_??6?$basic_ostream@DU?$char_traits@D@std@@@std@@QAEAAV01@I@Z
	mov	ecx, eax
	call	DWORD PTR __imp_??6?$basic_ostream@DU?$char_traits@D@std@@@std@@QAEAAV01@P6AAAV01@AAV01@@Z@Z

; 25   : 
; 26   : 	const char* name4 = "Ira";
; 27   : 	// name4[2] = 'd'; illegal, name4 is a char pointer
; 28   : 
; 29   : 	//char* name5 = "Laura";
; 30   : 	//name5[2] = 'o';  
; 31   : 	//std::cout << name5 << std::endl;  //illegal - cannot convet from const char[6] to char*
; 32   : 
; 33   : 	std::cin.get();

	mov	ecx, DWORD PTR __imp_?cin@std@@3V?$basic_istream@DU?$char_traits@D@std@@@1@A
	call	DWORD PTR __imp_?get@?$basic_istream@DU?$char_traits@D@std@@@std@@QAEHXZ

; 34   : }

	mov	ecx, DWORD PTR __$ArrayPad$[esp+16]
	xor	eax, eax
	xor	ecx, esp
	call	@__security_check_cookie@4
	mov	esp, ebp
	pop	ebp
	ret	0
_main	ENDP
_TEXT	ENDS
; Function compile flags: /Ogtp
; File c:\program files (x86)\microsoft visual studio\2017\community\vc\tools\msvc\14.16.27023\include\ostream
;	COMDAT ??Bsentry@?$basic_ostream@DU?$char_traits@D@std@@@std@@QBE_NXZ
_TEXT	SEGMENT
??Bsentry@?$basic_ostream@DU?$char_traits@D@std@@@std@@QBE_NXZ PROC ; std::basic_ostream<char,std::char_traits<char> >::sentry::operator bool, COMDAT
; _this$ = ecx

; 153  : 			return (_Ok);

	mov	al, BYTE PTR [ecx+4]

; 154  : 			}

	ret	0
??Bsentry@?$basic_ostream@DU?$char_traits@D@std@@@std@@QBE_NXZ ENDP ; std::basic_ostream<char,std::char_traits<char> >::sentry::operator bool
_TEXT	ENDS
; Function compile flags: /Ogtp
; File c:\program files (x86)\microsoft visual studio\2017\community\vc\tools\msvc\14.16.27023\include\ostream
;	COMDAT ??1sentry@?$basic_ostream@DU?$char_traits@D@std@@@std@@QAE@XZ
_TEXT	SEGMENT
__$EHRec$ = -12						; size = 12
??1sentry@?$basic_ostream@DU?$char_traits@D@std@@@std@@QAE@XZ PROC ; std::basic_ostream<char,std::char_traits<char> >::sentry::~sentry, COMDAT
; _this$ = ecx

; 135  : 			{	// destroy the object

	push	ebp
	mov	ebp, esp
	push	-1
	push	__ehhandler$??1sentry@?$basic_ostream@DU?$char_traits@D@std@@@std@@QAE@XZ
	mov	eax, DWORD PTR fs:0
	push	eax
	push	esi
	mov	eax, DWORD PTR ___security_cookie
	xor	eax, ebp
	push	eax
	lea	eax, DWORD PTR __$EHRec$[ebp]
	mov	DWORD PTR fs:0, eax
	mov	esi, ecx

; 136  :  #if _HAS_EXCEPTIONS
; 137  : 			if (!_STD uncaught_exception())	// TRANSITION, OS#15518458

	call	DWORD PTR __imp_?uncaught_exception@std@@YA_NXZ
	test	al, al
	jne	SHORT $LN2@sentry

; 138  : 				{
; 139  : 				this->_Myostr._Osfx();

	mov	ecx, DWORD PTR [esi]
	call	DWORD PTR __imp_?_Osfx@?$basic_ostream@DU?$char_traits@D@std@@@std@@QAEXXZ
$LN2@sentry:

; 105  : 			{	// destroy after unlocking

	mov	DWORD PTR __$EHRec$[ebp+8], 0

; 106  : 			if (_Myostr.rdbuf() != nullptr)

	mov	ecx, DWORD PTR [esi]
	mov	eax, DWORD PTR [ecx]
	mov	eax, DWORD PTR [eax+4]
	mov	ecx, DWORD PTR [eax+ecx+56]
	test	ecx, ecx
	je	SHORT $LN5@sentry

; 107  : 				_Myostr.rdbuf()->_Unlock();

	mov	eax, DWORD PTR [ecx]
	call	DWORD PTR [eax+8]
$LN5@sentry:

; 140  : 				}
; 141  :  #else /* _HAS_EXCEPTIONS */
; 142  : 			this->_Myostr._Osfx();
; 143  :  #endif /* _HAS_EXCEPTIONS */
; 144  : 			}

	mov	ecx, DWORD PTR __$EHRec$[ebp]
	mov	DWORD PTR fs:0, ecx
	pop	ecx
	pop	esi
	mov	esp, ebp
	pop	ebp
	ret	0
_TEXT	ENDS
;	COMDAT text$x
text$x	SEGMENT
__ehhandler$??1sentry@?$basic_ostream@DU?$char_traits@D@std@@@std@@QAE@XZ:
	mov	edx, DWORD PTR [esp+8]
	lea	eax, DWORD PTR [edx+12]
	mov	ecx, DWORD PTR [edx-8]
	xor	ecx, eax
	call	@__security_check_cookie@4
	mov	eax, OFFSET __ehfuncinfo$??1sentry@?$basic_ostream@DU?$char_traits@D@std@@@std@@QAE@XZ
	jmp	___CxxFrameHandler3
text$x	ENDS
??1sentry@?$basic_ostream@DU?$char_traits@D@std@@@std@@QAE@XZ ENDP ; std::basic_ostream<char,std::char_traits<char> >::sentry::~sentry
; Function compile flags: /Ogtp
; File c:\program files (x86)\microsoft visual studio\2017\community\vc\tools\msvc\14.16.27023\include\ostream
; File c:\program files (x86)\microsoft visual studio\2017\community\vc\tools\msvc\14.16.27023\include\ios
; File c:\program files (x86)\microsoft visual studio\2017\community\vc\tools\msvc\14.16.27023\include\ostream
; File c:\program files (x86)\microsoft visual studio\2017\community\vc\tools\msvc\14.16.27023\include\xiosbase
; File c:\program files (x86)\microsoft visual studio\2017\community\vc\tools\msvc\14.16.27023\include\ostream
; File c:\program files (x86)\microsoft visual studio\2017\community\vc\tools\msvc\14.16.27023\include\xiosbase
; File c:\program files (x86)\microsoft visual studio\2017\community\vc\tools\msvc\14.16.27023\include\ostream
;	COMDAT ??0sentry@?$basic_ostream@DU?$char_traits@D@std@@@std@@QAE@AAV12@@Z
_TEXT	SEGMENT
_this$ = -16						; size = 4
__$EHRec$ = -12						; size = 12
__Ostr$ = 8						; size = 4
??0sentry@?$basic_ostream@DU?$char_traits@D@std@@@std@@QAE@AAV12@@Z PROC ; std::basic_ostream<char,std::char_traits<char> >::sentry::sentry, COMDAT
; _this$ = ecx

; 121  : 			{	// construct locking and testing stream

	push	ebp
	mov	ebp, esp
	push	-1
	push	__ehhandler$??0sentry@?$basic_ostream@DU?$char_traits@D@std@@@std@@QAE@AAV12@@Z
	mov	eax, DWORD PTR fs:0
	push	eax
	push	ecx
	push	esi
	push	edi
	mov	eax, DWORD PTR ___security_cookie
	xor	eax, ebp
	push	eax
	lea	eax, DWORD PTR __$EHRec$[ebp]
	mov	DWORD PTR fs:0, eax
	mov	edi, ecx
	mov	DWORD PTR _this$[ebp], edi
	mov	esi, DWORD PTR __Ostr$[ebp]

; 98   : 			: _Myostr(_Ostr)

	mov	DWORD PTR [edi], esi

; 100  : 			if (_Myostr.rdbuf() != nullptr)

	mov	edx, DWORD PTR [esi]
; File c:\program files (x86)\microsoft visual studio\2017\community\vc\tools\msvc\14.16.27023\include\ios

; 87   : 		return (_Mystrbuf);

	mov	eax, DWORD PTR [edx+4]
	mov	ecx, DWORD PTR [eax+esi+56]
; File c:\program files (x86)\microsoft visual studio\2017\community\vc\tools\msvc\14.16.27023\include\ostream

; 100  : 			if (_Myostr.rdbuf() != nullptr)

	test	ecx, ecx
	je	SHORT $LN6@sentry

; 101  : 				_Myostr.rdbuf()->_Lock();

	mov	eax, DWORD PTR [ecx]
	call	DWORD PTR [eax+4]
	mov	edx, DWORD PTR [esi]
$LN6@sentry:

; 102  : 			}
; 103  : 
; 104  : 		__CLR_OR_THIS_CALL ~_Sentry_base() noexcept
; 105  : 			{	// destroy after unlocking
; 106  : 			if (_Myostr.rdbuf() != nullptr)
; 107  : 				_Myostr.rdbuf()->_Unlock();
; 108  : 			}
; 109  : 
; 110  : 		basic_ostream& _Myostr;	// the output stream, for _Unlock call at destruction
; 111  : 
; 112  : 		_Sentry_base& operator=(const _Sentry_base&) = delete;
; 113  : 		};
; 114  : 
; 115  : 	class sentry
; 116  : 		: public _Sentry_base
; 117  : 		{	// stores thread lock and state of stream
; 118  : 	public:
; 119  : 		explicit __CLR_OR_THIS_CALL sentry(basic_ostream& _Ostr)
; 120  : 			: _Sentry_base(_Ostr)

	mov	DWORD PTR __$EHRec$[ebp+8], 0
; File c:\program files (x86)\microsoft visual studio\2017\community\vc\tools\msvc\14.16.27023\include\xiosbase

; 352  : 		return (rdstate() == ios_base::goodbit);

	mov	eax, edx

; 330  : 		return (_Mystate);

	mov	ecx, DWORD PTR [edx+4]

; 352  : 		return (rdstate() == ios_base::goodbit);

	cmp	DWORD PTR [ecx+esi+12], 0
; File c:\program files (x86)\microsoft visual studio\2017\community\vc\tools\msvc\14.16.27023\include\ostream

; 122  : 			if (_Ostr.good() && _Ostr.tie() != nullptr && _Ostr.tie() != &_Ostr)

	jne	SHORT $LN2@sentry
	mov	ecx, DWORD PTR [ecx+esi+60]
	test	ecx, ecx
	je	SHORT $LN2@sentry
	cmp	ecx, esi
	je	SHORT $LN2@sentry

; 123  : 				_Ostr.tie()->flush();

	call	DWORD PTR __imp_?flush@?$basic_ostream@DU?$char_traits@D@std@@@std@@QAEAAV12@XZ
	mov	eax, DWORD PTR [esi]
$LN2@sentry:
; File c:\program files (x86)\microsoft visual studio\2017\community\vc\tools\msvc\14.16.27023\include\xiosbase

; 352  : 		return (rdstate() == ios_base::goodbit);

	mov	eax, DWORD PTR [eax+4]
	cmp	DWORD PTR [eax+esi+12], 0
	sete	al
; File c:\program files (x86)\microsoft visual studio\2017\community\vc\tools\msvc\14.16.27023\include\ostream

; 124  : 			_Ok = _Ostr.good();	// store test only after flushing tie

	mov	BYTE PTR [edi+4], al

; 125  : 			}

	mov	eax, edi
	mov	ecx, DWORD PTR __$EHRec$[ebp]
	mov	DWORD PTR fs:0, ecx
	pop	ecx
	pop	edi
	pop	esi
	mov	esp, ebp
	pop	ebp
	ret	4
_TEXT	ENDS
;	COMDAT text$x
text$x	SEGMENT
__unwindfunclet$??0sentry@?$basic_ostream@DU?$char_traits@D@std@@@std@@QAE@AAV12@@Z$0:
	mov	ecx, DWORD PTR _this$[ebp]
	jmp	??1_Sentry_base@?$basic_ostream@DU?$char_traits@D@std@@@std@@QAE@XZ ; std::basic_ostream<char,std::char_traits<char> >::_Sentry_base::~_Sentry_base
__ehhandler$??0sentry@?$basic_ostream@DU?$char_traits@D@std@@@std@@QAE@AAV12@@Z:
	mov	edx, DWORD PTR [esp+8]
	lea	eax, DWORD PTR [edx+12]
	mov	ecx, DWORD PTR [edx-16]
	xor	ecx, eax
	call	@__security_check_cookie@4
	mov	eax, OFFSET __ehfuncinfo$??0sentry@?$basic_ostream@DU?$char_traits@D@std@@@std@@QAE@AAV12@@Z
	jmp	___CxxFrameHandler3
text$x	ENDS
??0sentry@?$basic_ostream@DU?$char_traits@D@std@@@std@@QAE@AAV12@@Z ENDP ; std::basic_ostream<char,std::char_traits<char> >::sentry::sentry
; Function compile flags: /Ogtp
; File c:\program files (x86)\microsoft visual studio\2017\community\vc\tools\msvc\14.16.27023\include\ostream
;	COMDAT ??1_Sentry_base@?$basic_ostream@DU?$char_traits@D@std@@@std@@QAE@XZ
_TEXT	SEGMENT
__$EHRec$ = -12						; size = 12
??1_Sentry_base@?$basic_ostream@DU?$char_traits@D@std@@@std@@QAE@XZ PROC ; std::basic_ostream<char,std::char_traits<char> >::_Sentry_base::~_Sentry_base, COMDAT
; _this$ = ecx

; 105  : 			{	// destroy after unlocking

	push	ebp
	mov	ebp, esp
	push	-1
	push	__ehhandler$??1_Sentry_base@?$basic_ostream@DU?$char_traits@D@std@@@std@@QAE@XZ
	mov	eax, DWORD PTR fs:0
	push	eax
	mov	eax, DWORD PTR ___security_cookie
	xor	eax, ebp
	push	eax
	lea	eax, DWORD PTR __$EHRec$[ebp]
	mov	DWORD PTR fs:0, eax

; 106  : 			if (_Myostr.rdbuf() != nullptr)

	mov	ecx, DWORD PTR [ecx]
	mov	eax, DWORD PTR [ecx]
	mov	eax, DWORD PTR [eax+4]
	mov	ecx, DWORD PTR [eax+ecx+56]
	test	ecx, ecx
	je	SHORT $LN2@Sentry_bas

; 107  : 				_Myostr.rdbuf()->_Unlock();

	mov	eax, DWORD PTR [ecx]
	call	DWORD PTR [eax+8]
$LN2@Sentry_bas:

; 108  : 			}

	mov	ecx, DWORD PTR __$EHRec$[ebp]
	mov	DWORD PTR fs:0, ecx
	pop	ecx
	mov	esp, ebp
	pop	ebp
	ret	0
_TEXT	ENDS
;	COMDAT text$x
text$x	SEGMENT
__ehhandler$??1_Sentry_base@?$basic_ostream@DU?$char_traits@D@std@@@std@@QAE@XZ:
	mov	edx, DWORD PTR [esp+8]
	lea	eax, DWORD PTR [edx+12]
	mov	ecx, DWORD PTR [edx-4]
	xor	ecx, eax
	call	@__security_check_cookie@4
	mov	eax, OFFSET __ehfuncinfo$??1_Sentry_base@?$basic_ostream@DU?$char_traits@D@std@@@std@@QAE@XZ
	jmp	___CxxFrameHandler3
text$x	ENDS
??1_Sentry_base@?$basic_ostream@DU?$char_traits@D@std@@@std@@QAE@XZ ENDP ; std::basic_ostream<char,std::char_traits<char> >::_Sentry_base::~_Sentry_base
; Function compile flags: /Ogtp
; File c:\program files (x86)\microsoft visual studio\2017\community\vc\tools\msvc\14.16.27023\include\ostream
;	COMDAT ??0_Sentry_base@?$basic_ostream@DU?$char_traits@D@std@@@std@@QAE@AAV12@@Z
_TEXT	SEGMENT
__Ostr$ = 8						; size = 4
??0_Sentry_base@?$basic_ostream@DU?$char_traits@D@std@@@std@@QAE@AAV12@@Z PROC ; std::basic_ostream<char,std::char_traits<char> >::_Sentry_base::_Sentry_base, COMDAT
; _this$ = ecx

; 99   : 			{	// lock the stream buffer, if there

	push	ebp
	mov	ebp, esp

; 98   : 			: _Myostr(_Ostr)

	mov	edx, DWORD PTR __Ostr$[ebp]

; 99   : 			{	// lock the stream buffer, if there

	push	esi
	mov	esi, ecx
	mov	DWORD PTR [esi], edx

; 100  : 			if (_Myostr.rdbuf() != nullptr)

	mov	eax, DWORD PTR [edx]
	mov	eax, DWORD PTR [eax+4]
	mov	ecx, DWORD PTR [eax+edx+56]
	test	ecx, ecx
	je	SHORT $LN8@Sentry_bas

; 101  : 				_Myostr.rdbuf()->_Lock();

	mov	eax, DWORD PTR [ecx]
	call	DWORD PTR [eax+4]
$LN8@Sentry_bas:

; 102  : 			}

	mov	eax, esi
	pop	esi
	pop	ebp
	ret	4
??0_Sentry_base@?$basic_ostream@DU?$char_traits@D@std@@@std@@QAE@AAV12@@Z ENDP ; std::basic_ostream<char,std::char_traits<char> >::_Sentry_base::_Sentry_base
_TEXT	ENDS
; Function compile flags: /Ogtp
; File c:\program files (x86)\microsoft visual studio\2017\community\vc\tools\msvc\14.16.27023\include\ostream
; File c:\program files (x86)\microsoft visual studio\2017\community\vc\tools\msvc\14.16.27023\include\iosfwd
; File c:\program files (x86)\microsoft visual studio\2017\community\vc\tools\msvc\14.16.27023\include\ostream
; File c:\program files (x86)\microsoft visual studio\2017\community\vc\tools\msvc\14.16.27023\include\iosfwd
; File c:\program files (x86)\microsoft visual studio\2017\community\vc\tools\msvc\14.16.27023\include\ostream
; File c:\program files (x86)\microsoft visual studio\2017\community\vc\tools\msvc\14.16.27023\include\iosfwd
; File c:\program files (x86)\microsoft visual studio\2017\community\vc\tools\msvc\14.16.27023\include\xiosbase
; File c:\program files (x86)\microsoft visual studio\2017\community\vc\tools\msvc\14.16.27023\include\ostream
; File c:\program files (x86)\microsoft visual studio\2017\community\vc\tools\msvc\14.16.27023\include\ios
; File c:\program files (x86)\microsoft visual studio\2017\community\vc\tools\msvc\14.16.27023\include\ostream
; File c:\program files (x86)\microsoft visual studio\2017\community\vc\tools\msvc\14.16.27023\include\xiosbase
; File c:\program files (x86)\microsoft visual studio\2017\community\vc\tools\msvc\14.16.27023\include\ostream
; File c:\program files (x86)\microsoft visual studio\2017\community\vc\tools\msvc\14.16.27023\include\ios
; File c:\program files (x86)\microsoft visual studio\2017\community\vc\tools\msvc\14.16.27023\include\ostream
; File c:\program files (x86)\microsoft visual studio\2017\community\vc\tools\msvc\14.16.27023\include\xiosbase
; File c:\program files (x86)\microsoft visual studio\2017\community\vc\tools\msvc\14.16.27023\include\ostream
; File c:\program files (x86)\microsoft visual studio\2017\community\vc\tools\msvc\14.16.27023\include\xiosbase
; File c:\program files (x86)\microsoft visual studio\2017\community\vc\tools\msvc\14.16.27023\include\ostream
; File c:\program files (x86)\microsoft visual studio\2017\community\vc\tools\msvc\14.16.27023\include\ios
; File c:\program files (x86)\microsoft visual studio\2017\community\vc\tools\msvc\14.16.27023\include\ostream
; File c:\program files (x86)\microsoft visual studio\2017\community\vc\tools\msvc\14.16.27023\include\ios
; File c:\program files (x86)\microsoft visual studio\2017\community\vc\tools\msvc\14.16.27023\include\ostream
; File c:\program files (x86)\microsoft visual studio\2017\community\vc\tools\msvc\14.16.27023\include\ios
; File c:\program files (x86)\microsoft visual studio\2017\community\vc\tools\msvc\14.16.27023\include\ostream
; File c:\program files (x86)\microsoft visual studio\2017\community\vc\tools\msvc\14.16.27023\include\ios
; File c:\program files (x86)\microsoft visual studio\2017\community\vc\tools\msvc\14.16.27023\include\ostream
; File c:\program files (x86)\microsoft visual studio\2017\community\vc\tools\msvc\14.16.27023\include\ios
; File c:\program files (x86)\microsoft visual studio\2017\community\vc\tools\msvc\14.16.27023\include\ostream
; File c:\program files (x86)\microsoft visual studio\2017\community\vc\tools\msvc\14.16.27023\include\xiosbase
; File c:\program files (x86)\microsoft visual studio\2017\community\vc\tools\msvc\14.16.27023\include\ostream
;	COMDAT ??$?6U?$char_traits@D@std@@@std@@YAAAV?$basic_ostream@DU?$char_traits@D@std@@@0@AAV10@PBD@Z
_TEXT	SEGMENT
__Ok$ = -48						; size = 8
__Pad$ = -48						; size = 8
__State$ = -40						; size = 4
__Val$1$ = -36						; size = 4
$T20 = -36						; size = 1
__Count$2$ = -32					; size = 4
__Pad$1$ = -28						; size = 4
$T14 = -28						; size = 1
tv805 = -24						; size = 4
tv802 = -24						; size = 4
__Ostr$ = -20						; size = 4
__$EHRec$ = -16						; size = 16
??$?6U?$char_traits@D@std@@@std@@YAAAV?$basic_ostream@DU?$char_traits@D@std@@@0@AAV10@PBD@Z PROC ; std::operator<<<std::char_traits<char> >, COMDAT
; __Ostr$ = ecx
; __Val$ = edx

; 790  : 	{	// insert NTBS into char stream

	push	ebp
	mov	ebp, esp
	push	-1
	push	__ehhandler$??$?6U?$char_traits@D@std@@@std@@YAAAV?$basic_ostream@DU?$char_traits@D@std@@@0@AAV10@PBD@Z
	mov	eax, DWORD PTR fs:0
	push	eax
	sub	esp, 36					; 00000024H
	push	ebx
	push	esi
	push	edi
	mov	eax, DWORD PTR ___security_cookie
	xor	eax, ebp
	push	eax
	lea	eax, DWORD PTR __$EHRec$[ebp+4]
	mov	DWORD PTR fs:0, eax
	mov	DWORD PTR __$EHRec$[ebp], esp
	mov	eax, edx
	mov	DWORD PTR __Val$1$[ebp], eax
	mov	ebx, ecx
	mov	DWORD PTR __Ostr$[ebp], ebx
; File c:\program files (x86)\microsoft visual studio\2017\community\vc\tools\msvc\14.16.27023\include\iosfwd

; 464  : 		return (_CSTD strlen(_First));

	mov	ecx, eax
; File c:\program files (x86)\microsoft visual studio\2017\community\vc\tools\msvc\14.16.27023\include\ostream

; 793  : 	ios_base::iostate _State = ios_base::goodbit;

	mov	DWORD PTR __State$[ebp], 0
; File c:\program files (x86)\microsoft visual studio\2017\community\vc\tools\msvc\14.16.27023\include\iosfwd

; 464  : 		return (_CSTD strlen(_First));

	lea	esi, DWORD PTR [ecx+1]
$LL103@operator:
	mov	al, BYTE PTR [ecx]
	inc	ecx
	test	al, al
	jne	SHORT $LL103@operator
; File c:\program files (x86)\microsoft visual studio\2017\community\vc\tools\msvc\14.16.27023\include\ostream

; 795  : 	streamsize _Pad = _Ostr.width() <= 0 || _Ostr.width() <= _Count

	mov	edx, DWORD PTR [ebx]
; File c:\program files (x86)\microsoft visual studio\2017\community\vc\tools\msvc\14.16.27023\include\iosfwd

; 464  : 		return (_CSTD strlen(_First));

	sub	ecx, esi
	mov	DWORD PTR __Count$2$[ebp], ecx
; File c:\program files (x86)\microsoft visual studio\2017\community\vc\tools\msvc\14.16.27023\include\xiosbase

; 433  : 		return (_Wide);

	mov	eax, DWORD PTR [edx+4]
	add	eax, ebx
	mov	DWORD PTR tv805[ebp], eax
	mov	edi, DWORD PTR [eax+36]
	mov	esi, DWORD PTR [eax+32]
; File c:\program files (x86)\microsoft visual studio\2017\community\vc\tools\msvc\14.16.27023\include\ostream

; 795  : 	streamsize _Pad = _Ostr.width() <= 0 || _Ostr.width() <= _Count

	test	edi, edi
	jl	SHORT $LN17@operator
	jg	SHORT $LN105@operator
	test	esi, esi
	je	SHORT $LN17@operator
	test	edi, edi
	jl	SHORT $LN17@operator
	jg	SHORT $LN105@operator
	cmp	esi, ecx
	jbe	SHORT $LN17@operator
$LN105@operator:
	sub	esi, ecx
	sbb	edi, 0
	jmp	SHORT $LN118@operator
$LN17@operator:
	xorps	xmm0, xmm0
	movlpd	QWORD PTR __Pad$[ebp], xmm0
	mov	edi, DWORD PTR __Pad$[ebp+4]
	mov	esi, DWORD PTR __Pad$[ebp]
$LN118@operator:
; File c:\program files (x86)\microsoft visual studio\2017\community\vc\tools\msvc\14.16.27023\include\ios

; 87   : 		return (_Mystrbuf);

	mov	eax, DWORD PTR [eax+56]
	mov	ecx, edx
; File c:\program files (x86)\microsoft visual studio\2017\community\vc\tools\msvc\14.16.27023\include\ostream

; 98   : 			: _Myostr(_Ostr)

	mov	DWORD PTR __Pad$1$[ebp], edi
	mov	DWORD PTR __Ok$[ebp], ebx

; 99   : 			{	// lock the stream buffer, if there
; 100  : 			if (_Myostr.rdbuf() != nullptr)

	test	eax, eax
	je	SHORT $LN37@operator

; 101  : 				_Myostr.rdbuf()->_Lock();

	mov	ecx, DWORD PTR tv805[ebp]
	mov	eax, DWORD PTR [eax]
	mov	ecx, DWORD PTR [ecx+56]
	call	DWORD PTR [eax+4]
	mov	edx, DWORD PTR [ebx]
	mov	ecx, edx
$LN37@operator:

; 120  : 			: _Sentry_base(_Ostr)

	mov	DWORD PTR __$EHRec$[ebp+12], 0
; File c:\program files (x86)\microsoft visual studio\2017\community\vc\tools\msvc\14.16.27023\include\xiosbase

; 330  : 		return (_Mystate);

	mov	eax, DWORD PTR [edx+4]
	add	eax, ebx
	mov	DWORD PTR tv802[ebp], eax
	mov	eax, edx

; 352  : 		return (rdstate() == ios_base::goodbit);

	mov	ebx, DWORD PTR tv802[ebp]
	cmp	DWORD PTR [ebx+12], 0
; File c:\program files (x86)\microsoft visual studio\2017\community\vc\tools\msvc\14.16.27023\include\ostream

; 122  : 			if (_Ostr.good() && _Ostr.tie() != nullptr && _Ostr.tie() != &_Ostr)

	mov	ebx, DWORD PTR __Ostr$[ebp]
	jne	SHORT $LN33@operator
	mov	ebx, DWORD PTR tv802[ebp]
; File c:\program files (x86)\microsoft visual studio\2017\community\vc\tools\msvc\14.16.27023\include\ios

; 75   : 		return (_Tiestr);

	mov	ecx, edx
; File c:\program files (x86)\microsoft visual studio\2017\community\vc\tools\msvc\14.16.27023\include\ostream

; 122  : 			if (_Ostr.good() && _Ostr.tie() != nullptr && _Ostr.tie() != &_Ostr)

	cmp	DWORD PTR [ebx+60], 0
	mov	ebx, DWORD PTR __Ostr$[ebp]
	je	SHORT $LN33@operator
	mov	edi, DWORD PTR tv802[ebp]
	mov	edx, DWORD PTR [edi+60]
	mov	edi, DWORD PTR __Pad$1$[ebp]
	cmp	edx, ebx
	je	SHORT $LN33@operator

; 123  : 				_Ostr.tie()->flush();

	mov	ecx, edx
	call	DWORD PTR __imp_?flush@?$basic_ostream@DU?$char_traits@D@std@@@std@@QAEAAV12@XZ
	mov	eax, DWORD PTR [ebx]
	mov	ecx, eax
$LN33@operator:
; File c:\program files (x86)\microsoft visual studio\2017\community\vc\tools\msvc\14.16.27023\include\xiosbase

; 330  : 		return (_Mystate);

	mov	edx, DWORD PTR [eax+4]
	mov	eax, DWORD PTR [edx+ebx+12]

; 352  : 		return (rdstate() == ios_base::goodbit);

	test	eax, eax
	sete	BYTE PTR __Ok$[ebp+4]
; File c:\program files (x86)\microsoft visual studio\2017\community\vc\tools\msvc\14.16.27023\include\ostream

; 797  : 	const typename _Myos::sentry _Ok(_Ostr);

	mov	DWORD PTR __$EHRec$[ebp+12], 1
	test	eax, eax

; 798  : 
; 799  : 	if (!_Ok)

	je	SHORT $LN8@operator

; 800  : 		_State |= ios_base::badbit;

	mov	ecx, 4

; 801  : 	else

	jmp	$LN22@operator
$LN8@operator:

; 802  : 		{	// state okay, insert
; 803  : 		_TRY_IO_BEGIN

	mov	BYTE PTR __$EHRec$[ebp+12], 2
; File c:\program files (x86)\microsoft visual studio\2017\community\vc\tools\msvc\14.16.27023\include\xiosbase

; 390  : 		return (_Fmtfl);

	mov	eax, DWORD PTR [edx+ebx+20]
; File c:\program files (x86)\microsoft visual studio\2017\community\vc\tools\msvc\14.16.27023\include\ostream

; 804  : 		if ((_Ostr.flags() & ios_base::adjustfield) != ios_base::left)

	and	eax, 448				; 000001c0H
	cmp	eax, 64					; 00000040H
	je	SHORT $LN99@operator
	npad	4
$LL4@operator:

; 805  : 			for (; 0 < _Pad; --_Pad)	// pad on left

	test	edi, edi
	jl	SHORT $LN3@operator
	jg	SHORT $LN106@operator
	test	esi, esi
	je	SHORT $LN3@operator
$LN106@operator:
; File c:\program files (x86)\microsoft visual studio\2017\community\vc\tools\msvc\14.16.27023\include\ios

; 108  : 		return (_Fillch);

	mov	eax, DWORD PTR [ebx]
	mov	ecx, DWORD PTR [eax+4]
	mov	al, BYTE PTR [ecx+ebx+64]
; File c:\program files (x86)\microsoft visual studio\2017\community\vc\tools\msvc\14.16.27023\include\ostream

; 806  : 				if (_Traits::eq_int_type(_Traits::eof(),

	mov	ecx, DWORD PTR [ecx+ebx+56]
; File c:\program files (x86)\microsoft visual studio\2017\community\vc\tools\msvc\14.16.27023\include\ios

; 108  : 		return (_Fillch);

	mov	BYTE PTR $T14[ebp], al
; File c:\program files (x86)\microsoft visual studio\2017\community\vc\tools\msvc\14.16.27023\include\ostream

; 806  : 				if (_Traits::eq_int_type(_Traits::eof(),

	push	DWORD PTR $T14[ebp]
	call	DWORD PTR __imp_?sputc@?$basic_streambuf@DU?$char_traits@D@std@@@std@@QAEHD@Z
	cmp	eax, -1
	jne	SHORT $LN2@operator

; 807  : 					_Ostr.rdbuf()->sputc(_Ostr.fill())))
; 808  : 					{	// insertion failed, quit
; 809  : 					_State |= ios_base::badbit;

	lea	ecx, DWORD PTR [eax+5]

; 810  : 					break;

	jmp	SHORT $LN6@operator
$LN2@operator:

; 805  : 			for (; 0 < _Pad; --_Pad)	// pad on left

	add	esi, -1
	adc	edi, -1
	jmp	SHORT $LL4@operator
$LN3@operator:

; 814  : 			&& _Ostr.rdbuf()->sputn(_Val, _Count) != _Count)

	mov	ecx, DWORD PTR [ebx]
$LN99@operator:
; File c:\program files (x86)\microsoft visual studio\2017\community\vc\tools\msvc\14.16.27023\include\ios

; 87   : 		return (_Mystrbuf);

	mov	eax, DWORD PTR [ecx+4]
; File c:\program files (x86)\microsoft visual studio\2017\community\vc\tools\msvc\14.16.27023\include\ostream

; 814  : 			&& _Ostr.rdbuf()->sputn(_Val, _Count) != _Count)

	push	0
	push	DWORD PTR __Count$2$[ebp]
	push	DWORD PTR __Val$1$[ebp]
	mov	ecx, DWORD PTR [eax+ebx+56]
	call	DWORD PTR __imp_?sputn@?$basic_streambuf@DU?$char_traits@D@std@@@std@@QAE_JPBD_J@Z
	cmp	eax, DWORD PTR __Count$2$[ebp]
	jne	SHORT $LN107@operator
	test	edx, edx
	jne	SHORT $LN107@operator
$LL109@operator:

; 815  : 			_State |= ios_base::badbit;
; 816  : 
; 817  : 		if (_State == ios_base::goodbit)
; 818  : 			for (; 0 < _Pad; --_Pad)	// pad on right

	test	edi, edi
	jl	SHORT $LN113@operator
	jg	SHORT $LN108@operator
	test	esi, esi
	je	SHORT $LN113@operator
$LN108@operator:
; File c:\program files (x86)\microsoft visual studio\2017\community\vc\tools\msvc\14.16.27023\include\ios

; 108  : 		return (_Fillch);

	mov	eax, DWORD PTR [ebx]
	mov	ecx, DWORD PTR [eax+4]
	mov	al, BYTE PTR [ecx+ebx+64]
; File c:\program files (x86)\microsoft visual studio\2017\community\vc\tools\msvc\14.16.27023\include\ostream

; 819  : 				if (_Traits::eq_int_type(_Traits::eof(),

	mov	ecx, DWORD PTR [ecx+ebx+56]
; File c:\program files (x86)\microsoft visual studio\2017\community\vc\tools\msvc\14.16.27023\include\ios

; 108  : 		return (_Fillch);

	mov	BYTE PTR $T20[ebp], al
; File c:\program files (x86)\microsoft visual studio\2017\community\vc\tools\msvc\14.16.27023\include\ostream

; 819  : 				if (_Traits::eq_int_type(_Traits::eof(),

	push	DWORD PTR $T20[ebp]
	call	DWORD PTR __imp_?sputc@?$basic_streambuf@DU?$char_traits@D@std@@@std@@QAEHD@Z
	cmp	eax, -1
	jne	SHORT $LN5@operator
$LN107@operator:

; 820  : 					_Ostr.rdbuf()->sputc(_Ostr.fill())))
; 821  : 					{	// insertion failed, quit
; 822  : 					_State |= ios_base::badbit;
; 823  : 					break;
; 824  : 					}
; 825  : 		_Ostr.width(0);

	mov	ecx, 4
	jmp	SHORT $LN6@operator
$LN5@operator:

; 815  : 			_State |= ios_base::badbit;
; 816  : 
; 817  : 		if (_State == ios_base::goodbit)
; 818  : 			for (; 0 < _Pad; --_Pad)	// pad on right

	add	esi, -1
	adc	edi, -1
	jmp	SHORT $LL109@operator
$LN113@operator:

; 820  : 					_Ostr.rdbuf()->sputc(_Ostr.fill())))
; 821  : 					{	// insertion failed, quit
; 822  : 					_State |= ios_base::badbit;
; 823  : 					break;
; 824  : 					}
; 825  : 		_Ostr.width(0);

	xor	ecx, ecx
$LN6@operator:
	mov	eax, DWORD PTR [ebx]
	mov	eax, DWORD PTR [eax+4]
; File c:\program files (x86)\microsoft visual studio\2017\community\vc\tools\msvc\14.16.27023\include\xiosbase

; 439  : 		_Wide = _Newwidth;

	mov	DWORD PTR [eax+ebx+32], 0
	mov	DWORD PTR [eax+ebx+36], 0
; File c:\program files (x86)\microsoft visual studio\2017\community\vc\tools\msvc\14.16.27023\include\ostream
	jmp	SHORT $LN119@operator
__catch$??$?6U?$char_traits@D@std@@@std@@YAAAV?$basic_ostream@DU?$char_traits@D@std@@@0@AAV10@PBD@Z$0:

; 826  : 		_CATCH_IO_(_Ostr)

	mov	edx, DWORD PTR __Ostr$[ebp]
	push	1
	push	4
	mov	eax, DWORD PTR [edx]
	mov	ecx, DWORD PTR [eax+4]
	add	ecx, edx
	call	DWORD PTR __imp_?setstate@?$basic_ios@DU?$char_traits@D@std@@@std@@QAEXH_N@Z
	mov	eax, $LN23@operator
	ret	0
$LN23@operator:
; File c:\program files (x86)\microsoft visual studio\2017\community\vc\tools\msvc\14.16.27023\include\ios
	mov	ebx, DWORD PTR __Ostr$[ebp]
	mov	ecx, DWORD PTR __State$[ebp]
$LN119@operator:
; File c:\program files (x86)\microsoft visual studio\2017\community\vc\tools\msvc\14.16.27023\include\ostream

; 827  : 		}
; 828  : 
; 829  : 	_Ostr.setstate(_State);

	mov	DWORD PTR __$EHRec$[ebp+12], 1
$LN22@operator:
	mov	eax, DWORD PTR [ebx]
	push	0
	push	ecx
	mov	ecx, DWORD PTR [eax+4]
	add	ecx, ebx
	call	DWORD PTR __imp_?setstate@?$basic_ios@DU?$char_traits@D@std@@@std@@QAEXH_N@Z

; 135  : 			{	// destroy the object

	mov	DWORD PTR __$EHRec$[ebp+12], 4

; 136  :  #if _HAS_EXCEPTIONS
; 137  : 			if (!_STD uncaught_exception())	// TRANSITION, OS#15518458

	call	DWORD PTR __imp_?uncaught_exception@std@@YA_NXZ
	mov	esi, DWORD PTR __Ok$[ebp]
	test	al, al
	jne	SHORT $LN82@operator

; 138  : 				{
; 139  : 				this->_Myostr._Osfx();

	mov	ecx, esi
	call	DWORD PTR __imp_?_Osfx@?$basic_ostream@DU?$char_traits@D@std@@@std@@QAEXXZ
$LN82@operator:

; 105  : 			{	// destroy after unlocking

	mov	BYTE PTR __$EHRec$[ebp+12], 5

; 106  : 			if (_Myostr.rdbuf() != nullptr)

	mov	eax, DWORD PTR [esi]
	mov	eax, DWORD PTR [eax+4]
	mov	ecx, DWORD PTR [eax+esi+56]
	test	ecx, ecx
	je	SHORT $LN110@operator

; 107  : 				_Myostr.rdbuf()->_Unlock();

	mov	eax, DWORD PTR [ecx]
	call	DWORD PTR [eax+8]
$LN110@operator:

; 830  : 	return (_Ostr);
; 831  : 	}

	mov	eax, ebx
	mov	ecx, DWORD PTR __$EHRec$[ebp+4]
	mov	DWORD PTR fs:0, ecx
	pop	ecx
	pop	edi
	pop	esi
	pop	ebx
	mov	esp, ebp
	pop	ebp
	ret	0
_TEXT	ENDS
;	COMDAT text$x
text$x	SEGMENT
__unwindfunclet$??$?6U?$char_traits@D@std@@@std@@YAAAV?$basic_ostream@DU?$char_traits@D@std@@@0@AAV10@PBD@Z$3:
	lea	ecx, DWORD PTR __Ok$[ebp]
	jmp	??1_Sentry_base@?$basic_ostream@DU?$char_traits@D@std@@@std@@QAE@XZ ; std::basic_ostream<char,std::char_traits<char> >::_Sentry_base::~_Sentry_base
__unwindfunclet$??$?6U?$char_traits@D@std@@@std@@YAAAV?$basic_ostream@DU?$char_traits@D@std@@@0@AAV10@PBD@Z$2:
	lea	ecx, DWORD PTR __Ok$[ebp]
	jmp	??1sentry@?$basic_ostream@DU?$char_traits@D@std@@@std@@QAE@XZ ; std::basic_ostream<char,std::char_traits<char> >::sentry::~sentry
__ehhandler$??$?6U?$char_traits@D@std@@@std@@YAAAV?$basic_ostream@DU?$char_traits@D@std@@@0@AAV10@PBD@Z:
	mov	edx, DWORD PTR [esp+8]
	lea	eax, DWORD PTR [edx+12]
	mov	ecx, DWORD PTR [edx-52]
	xor	ecx, eax
	call	@__security_check_cookie@4
	mov	eax, OFFSET __ehfuncinfo$??$?6U?$char_traits@D@std@@@std@@YAAAV?$basic_ostream@DU?$char_traits@D@std@@@0@AAV10@PBD@Z
	jmp	___CxxFrameHandler3
text$x	ENDS
??$?6U?$char_traits@D@std@@@std@@YAAAV?$basic_ostream@DU?$char_traits@D@std@@@0@AAV10@PBD@Z ENDP ; std::operator<<<std::char_traits<char> >
; Function compile flags: /Ogtp
; File c:\program files (x86)\microsoft visual studio\2017\community\vc\tools\msvc\14.16.27023\include\ostream
;	COMDAT ??$endl@DU?$char_traits@D@std@@@std@@YAAAV?$basic_ostream@DU?$char_traits@D@std@@@0@AAV10@@Z
_TEXT	SEGMENT
__Ostr$ = 8						; size = 4
??$endl@DU?$char_traits@D@std@@@std@@YAAAV?$basic_ostream@DU?$char_traits@D@std@@@0@AAV10@@Z PROC ; std::endl<char,std::char_traits<char> >, COMDAT

; 1019 : 	{	// insert newline and flush stream

	push	ebp
	mov	ebp, esp
	push	esi

; 1020 : 	_Ostr.put(_Ostr.widen('\n'));

	mov	esi, DWORD PTR __Ostr$[ebp]
	push	10					; 0000000aH
	mov	eax, DWORD PTR [esi]
	mov	ecx, DWORD PTR [eax+4]
	add	ecx, esi
	call	DWORD PTR __imp_?widen@?$basic_ios@DU?$char_traits@D@std@@@std@@QBEDD@Z
	movzx	ecx, al
	push	ecx
	mov	ecx, esi
	call	DWORD PTR __imp_?put@?$basic_ostream@DU?$char_traits@D@std@@@std@@QAEAAV12@D@Z

; 1021 : 	_Ostr.flush();

	mov	ecx, esi
	call	DWORD PTR __imp_?flush@?$basic_ostream@DU?$char_traits@D@std@@@std@@QAEAAV12@XZ

; 1022 : 	return (_Ostr);

	mov	eax, esi
	pop	esi

; 1023 : 	}

	pop	ebp
	ret	0
??$endl@DU?$char_traits@D@std@@@std@@YAAAV?$basic_ostream@DU?$char_traits@D@std@@@0@AAV10@@Z ENDP ; std::endl<char,std::char_traits<char> >
_TEXT	ENDS
END
